target datalayout = "e-m:e-p270:32:32-p271:32:32-p272:64:64-i64:64-i128:128-f80:128-n8:16:32:64-S128"
target triple = "x86_64-pc-linux-gnu"

%struct.H5PL_search_params_t = type { i32, ptr }

@H5PL_plugin_control_mask_g = internal global i32 65535, align 4
@.str.2 = private unnamed_addr constant [101 x i8] c"generated/home/dtcxzyw/WorkSpace/Projects/compilers/llvm-opt-benchmark/bench/hdf5/hdf5/src/H5PLint.c\00", align 1
@H5E_PLUGIN_g = external global i64, align 8
@__func__.H5PL_load = private unnamed_addr constant [10 x i8] c"H5PL_load\00", align 1
@H5E_CANTLOAD_g = external global i64, align 8
@.str.7 = private unnamed_addr constant [24 x i8] c"filter plugins disabled\00", align 1
@.str.8 = private unnamed_addr constant [51 x i8] c"Virtual Object Layer (VOL) driver plugins disabled\00", align 1
@.str.9 = private unnamed_addr constant [43 x i8] c"Virtual File Driver (VFD) plugins disabled\00", align 1
@.str.10 = private unnamed_addr constant [30 x i8] c"Invalid plugin type specified\00", align 1
@H5E_CANTGET_g = external global i64, align 8
@.str.11 = private unnamed_addr constant [30 x i8] c"search in plugin cache failed\00", align 1
@.str.12 = private unnamed_addr constant [112 x i8] c"can't find plugin in the paths either set by HDF5_PLUGIN_PATH, or default location, or set by H5PLxxx functions\00", align 1
@H5E_NOTFOUND_g = external global i64, align 8
@.str.13 = private unnamed_addr constant [121 x i8] c"can't find plugin. Check either HDF5_VOL_CONNECTOR, HDF5_PLUGIN_PATH, default location, or path set by H5PLxxx functions\00", align 1

; Function Attrs: nounwind uwtable
define ptr @H5PL_load(i32 noundef %0, ptr noundef %1) #0 {
  %3 = alloca i32, align 4
  %4 = alloca ptr, align 8
  %5 = alloca %struct.H5PL_search_params_t, align 8
  %6 = alloca i8, align 1
  %7 = alloca ptr, align 8
  %8 = alloca ptr, align 8
  %9 = alloca i8, align 1
  store i32 %0, ptr %3, align 4
  store ptr %1, ptr %4, align 8
  store i8 0, ptr %6, align 1
  store ptr null, ptr %7, align 8
  store ptr null, ptr %8, align 8
  store i8 0, ptr %9, align 1
  %10 = load i32, ptr %3, align 4
  switch i32 %10, label %72 [
    i32 0, label %11
    i32 1, label %31
    i32 2, label %51
    i32 -1, label %71
    i32 3, label %71
  ]

11:                                               ; preds = %2
  %12 = load i32, ptr @H5PL_plugin_control_mask_g, align 4
  %13 = and i32 %12, 1
  %14 = icmp eq i32 %13, 0
  br i1 %14, label %15, label %30

15:                                               ; preds = %11
  br label %16

16:                                               ; preds = %15
  br label %17

17:                                               ; preds = %16
  br label %18

18:                                               ; preds = %17
  %19 = load i64, ptr @H5E_PLUGIN_g, align 8
  %20 = load i64, ptr @H5E_CANTLOAD_g, align 8
  %21 = call i32 (ptr, ptr, i32, i64, i64, ptr, ...) @H5E_printf_stack(ptr noundef @.str.2, ptr noundef @__func__.H5PL_load, i32 noundef 225, i64 noundef %19, i64 noundef %20, ptr noundef @.str.7)
  br label %22

22:                                               ; preds = %18
  store i8 1, ptr %9, align 1
  %23 = load i8, ptr %9, align 1
  %24 = trunc i8 %23 to i1
  %25 = zext i1 %24 to i8
  store i8 %25, ptr %9, align 1
  br label %26

26:                                               ; preds = %22
  br label %27

27:                                               ; preds = %26
  store ptr null, ptr %8, align 8
  br label %152

28:                                               ; No predecessors!
  br label %29

29:                                               ; preds = %28
  br label %30

30:                                               ; preds = %29, %11
  br label %87

31:                                               ; preds = %2
  %32 = load i32, ptr @H5PL_plugin_control_mask_g, align 4
  %33 = and i32 %32, 2
  %34 = icmp eq i32 %33, 0
  br i1 %34, label %35, label %50

35:                                               ; preds = %31
  br label %36

36:                                               ; preds = %35
  br label %37

37:                                               ; preds = %36
  br label %38

38:                                               ; preds = %37
  %39 = load i64, ptr @H5E_PLUGIN_g, align 8
  %40 = load i64, ptr @H5E_CANTLOAD_g, align 8
  %41 = call i32 (ptr, ptr, i32, i64, i64, ptr, ...) @H5E_printf_stack(ptr noundef @.str.2, ptr noundef @__func__.H5PL_load, i32 noundef 231, i64 noundef %39, i64 noundef %40, ptr noundef @.str.8)
  br label %42

42:                                               ; preds = %38
  store i8 1, ptr %9, align 1
  %43 = load i8, ptr %9, align 1
  %44 = trunc i8 %43 to i1
  %45 = zext i1 %44 to i8
  store i8 %45, ptr %9, align 1
  br label %46

46:                                               ; preds = %42
  br label %47

47:                                               ; preds = %46
  store ptr null, ptr %8, align 8
  br label %152

48:                                               ; No predecessors!
  br label %49

49:                                               ; preds = %48
  br label %50

50:                                               ; preds = %49, %31
  br label %87

51:                                               ; preds = %2
  %52 = load i32, ptr @H5PL_plugin_control_mask_g, align 4
  %53 = and i32 %52, 4
  %54 = icmp eq i32 %53, 0
  br i1 %54, label %55, label %70

55:                                               ; preds = %51
  br label %56

56:                                               ; preds = %55
  br label %57

57:                                               ; preds = %56
  br label %58

58:                                               ; preds = %57
  %59 = load i64, ptr @H5E_PLUGIN_g, align 8
  %60 = load i64, ptr @H5E_CANTLOAD_g, align 8
  %61 = call i32 (ptr, ptr, i32, i64, i64, ptr, ...) @H5E_printf_stack(ptr noundef @.str.2, ptr noundef @__func__.H5PL_load, i32 noundef 236, i64 noundef %59, i64 noundef %60, ptr noundef @.str.9)
  br label %62

62:                                               ; preds = %58
  store i8 1, ptr %9, align 1
  %63 = load i8, ptr %9, align 1
  %64 = trunc i8 %63 to i1
  %65 = zext i1 %64 to i8
  store i8 %65, ptr %9, align 1
  br label %66

66:                                               ; preds = %62
  br label %67

67:                                               ; preds = %66
  store ptr null, ptr %8, align 8
  br label %152

68:                                               ; No predecessors!
  br label %69

69:                                               ; preds = %68
  br label %70

70:                                               ; preds = %69, %51
  br label %87

71:                                               ; preds = %2, %2
  br label %72

72:                                               ; preds = %71, %2
  br label %73

73:                                               ; preds = %72
  br label %74

74:                                               ; preds = %73
  br label %75

75:                                               ; preds = %74
  %76 = load i64, ptr @H5E_PLUGIN_g, align 8
  %77 = load i64, ptr @H5E_CANTLOAD_g, align 8
  %78 = call i32 (ptr, ptr, i32, i64, i64, ptr, ...) @H5E_printf_stack(ptr noundef @.str.2, ptr noundef @__func__.H5PL_load, i32 noundef 242, i64 noundef %76, i64 noundef %77, ptr noundef @.str.10)
  br label %79

79:                                               ; preds = %75
  store i8 1, ptr %9, align 1
  %80 = load i8, ptr %9, align 1
  %81 = trunc i8 %80 to i1
  %82 = zext i1 %81 to i8
  store i8 %82, ptr %9, align 1
  br label %83

83:                                               ; preds = %79
  br label %84

84:                                               ; preds = %83
  store ptr null, ptr %8, align 8
  br label %152

85:                                               ; No predecessors!
  br label %86

86:                                               ; preds = %85
  br label %87

87:                                               ; preds = %86, %70, %50, %30
  %88 = load i32, ptr %3, align 4
  %89 = getelementptr inbounds %struct.H5PL_search_params_t, ptr %5, i32 0, i32 0
  store i32 %88, ptr %89, align 8
  %90 = load ptr, ptr %4, align 8
  %91 = getelementptr inbounds %struct.H5PL_search_params_t, ptr %5, i32 0, i32 1
  store ptr %90, ptr %91, align 8
  %92 = call i32 @H5PL__find_plugin_in_cache(ptr noundef %5, ptr noundef %6, ptr noundef %7)
  %93 = icmp slt i32 %92, 0
  br i1 %93, label %94, label %109

94:                                               ; preds = %87
  br label %95

95:                                               ; preds = %94
  br label %96

96:                                               ; preds = %95
  br label %97

97:                                               ; preds = %96
  %98 = load i64, ptr @H5E_PLUGIN_g, align 8
  %99 = load i64, ptr @H5E_CANTGET_g, align 8
  %100 = call i32 (ptr, ptr, i32, i64, i64, ptr, ...) @H5E_printf_stack(ptr noundef @.str.2, ptr noundef @__func__.H5PL_load, i32 noundef 251, i64 noundef %98, i64 noundef %99, ptr noundef @.str.11)
  br label %101

101:                                              ; preds = %97
  store i8 1, ptr %9, align 1
  %102 = load i8, ptr %9, align 1
  %103 = trunc i8 %102 to i1
  %104 = zext i1 %103 to i8
  store i8 %104, ptr %9, align 1
  br label %105

105:                                              ; preds = %101
  br label %106

106:                                              ; preds = %105
  store ptr null, ptr %8, align 8
  br label %152

107:                                              ; No predecessors!
  br label %108

108:                                              ; preds = %107
  br label %109

109:                                              ; preds = %108, %87
  %110 = load i8, ptr %6, align 1
  %111 = trunc i8 %110 to i1
  br i1 %111, label %131, label %112

112:                                              ; preds = %109
  %113 = call i32 @H5PL__find_plugin_in_path_table(ptr noundef %5, ptr noundef %6, ptr noundef %7)
  %114 = icmp slt i32 %113, 0
  br i1 %114, label %115, label %130

115:                                              ; preds = %112
  br label %116

116:                                              ; preds = %115
  br label %117

117:                                              ; preds = %116
  br label %118

118:                                              ; preds = %117
  %119 = load i64, ptr @H5E_PLUGIN_g, align 8
  %120 = load i64, ptr @H5E_CANTGET_g, align 8
  %121 = call i32 (ptr, ptr, i32, i64, i64, ptr, ...) @H5E_printf_stack(ptr noundef @.str.2, ptr noundef @__func__.H5PL_load, i32 noundef 258, i64 noundef %119, i64 noundef %120, ptr noundef @.str.12)
  br label %122

122:                                              ; preds = %118
  store i8 1, ptr %9, align 1
  %123 = load i8, ptr %9, align 1
  %124 = trunc i8 %123 to i1
  %125 = zext i1 %124 to i8
  store i8 %125, ptr %9, align 1
  br label %126

126:                                              ; preds = %122
  br label %127

127:                                              ; preds = %126
  store ptr null, ptr %8, align 8
  br label %152

128:                                              ; No predecessors!
  br label %129

129:                                              ; preds = %128
  br label %130

130:                                              ; preds = %129, %112
  br label %131

131:                                              ; preds = %130, %109
  %132 = load i8, ptr %6, align 1
  %133 = trunc i8 %132 to i1
  br i1 %133, label %134, label %136

134:                                              ; preds = %131
  %135 = load ptr, ptr %7, align 8
  store ptr %135, ptr %8, align 8
  br label %151

136:                                              ; preds = %131
  br label %137

137:                                              ; preds = %136
  br label %138

138:                                              ; preds = %137
  br label %139

139:                                              ; preds = %138
  %140 = load i64, ptr @H5E_PLUGIN_g, align 8
  %141 = load i64, ptr @H5E_NOTFOUND_g, align 8
  %142 = call i32 (ptr, ptr, i32, i64, i64, ptr, ...) @H5E_printf_stack(ptr noundef @.str.2, ptr noundef @__func__.H5PL_load, i32 noundef 266, i64 noundef %140, i64 noundef %141, ptr noundef @.str.13)
  br label %143

143:                                              ; preds = %139
  store i8 1, ptr %9, align 1
  %144 = load i8, ptr %9, align 1
  %145 = trunc i8 %144 to i1
  %146 = zext i1 %145 to i8
  store i8 %146, ptr %9, align 1
  br label %147

147:                                              ; preds = %143
  br label %148

148:                                              ; preds = %147
  store ptr null, ptr %8, align 8
  br label %152

149:                                              ; No predecessors!
  br label %150

150:                                              ; preds = %149
  br label %151

151:                                              ; preds = %150, %134
  br label %152

152:                                              ; preds = %151, %148, %127, %106, %84, %67, %47, %27
  %153 = load ptr, ptr %8, align 8
  ret ptr %153
}