; Function Attrs: nounwind uwtable
define ptr @H5PL_load(i32 noundef %0, ptr noundef %1) local_unnamed_addr #2 {
  %3 = alloca %struct.H5PL_search_params_t, align 8
  %4 = alloca i8, align 1
  %5 = alloca ptr, align 8
  store i8 0, ptr %4, align 1
  store ptr null, ptr %5, align 8
  switch i32 %0, label %30 [
    i32 0, label %6
    i32 1, label %14
    i32 2, label %22
  ]

6:                                                ; preds = %2
  %7 = load i32, ptr @H5PL_plugin_control_mask_g, align 4
  %8 = and i32 %7, 1
  %9 = icmp eq i32 %8, 0
  br i1 %9, label %10, label %34

10:                                               ; preds = %6
  %11 = load i64, ptr @H5E_PLUGIN_g, align 8
  %12 = load i64, ptr @H5E_CANTLOAD_g, align 8
  %13 = tail call i32 (ptr, ptr, i32, i64, i64, ptr, ...) @H5E_printf_stack(ptr noundef nonnull @.str.2, ptr noundef nonnull @__func__.H5PL_load, i32 noundef 225, i64 noundef %11, i64 noundef %12, ptr noundef nonnull @.str.7) #6
  br label %61

14:                                               ; preds = %2
  %15 = load i32, ptr @H5PL_plugin_control_mask_g, align 4
  %16 = and i32 %15, 2
  %17 = icmp eq i32 %16, 0
  br i1 %17, label %18, label %34

18:                                               ; preds = %14
  %19 = load i64, ptr @H5E_PLUGIN_g, align 8
  %20 = load i64, ptr @H5E_CANTLOAD_g, align 8
  %21 = tail call i32 (ptr, ptr, i32, i64, i64, ptr, ...) @H5E_printf_stack(ptr noundef nonnull @.str.2, ptr noundef nonnull @__func__.H5PL_load, i32 noundef 231, i64 noundef %19, i64 noundef %20, ptr noundef nonnull @.str.8) #6
  br label %61

22:                                               ; preds = %2
  %23 = load i32, ptr @H5PL_plugin_control_mask_g, align 4
  %24 = and i32 %23, 4
  %25 = icmp eq i32 %24, 0
  br i1 %25, label %26, label %34

26:                                               ; preds = %22
  %27 = load i64, ptr @H5E_PLUGIN_g, align 8
  %28 = load i64, ptr @H5E_CANTLOAD_g, align 8
  %29 = tail call i32 (ptr, ptr, i32, i64, i64, ptr, ...) @H5E_printf_stack(ptr noundef nonnull @.str.2, ptr noundef nonnull @__func__.H5PL_load, i32 noundef 236, i64 noundef %27, i64 noundef %28, ptr noundef nonnull @.str.9) #6
  br label %61

30:                                               ; preds = %2
  %31 = load i64, ptr @H5E_PLUGIN_g, align 8
  %32 = load i64, ptr @H5E_CANTLOAD_g, align 8
  %33 = tail call i32 (ptr, ptr, i32, i64, i64, ptr, ...) @H5E_printf_stack(ptr noundef nonnull @.str.2, ptr noundef nonnull @__func__.H5PL_load, i32 noundef 242, i64 noundef %31, i64 noundef %32, ptr noundef nonnull @.str.10) #6
  br label %61

34:                                               ; preds = %22, %14, %6
  store i32 %0, ptr %3, align 8
  %35 = getelementptr inbounds nuw i8, ptr %3, i64 8
  store ptr %1, ptr %35, align 8
  %36 = call i32 @H5PL__find_plugin_in_cache(ptr noundef nonnull %3, ptr noundef nonnull %4, ptr noundef nonnull %5) #6
  %37 = icmp slt i32 %36, 0
  br i1 %37, label %38, label %42

38:                                               ; preds = %34
  %39 = load i64, ptr @H5E_PLUGIN_g, align 8
  %40 = load i64, ptr @H5E_CANTGET_g, align 8
  %41 = call i32 (ptr, ptr, i32, i64, i64, ptr, ...) @H5E_printf_stack(ptr noundef nonnull @.str.2, ptr noundef nonnull @__func__.H5PL_load, i32 noundef 251, i64 noundef %39, i64 noundef %40, ptr noundef nonnull @.str.11) #6
  br label %61

42:                                               ; preds = %34
  %43 = load i8, ptr %4, align 1
  %44 = trunc i8 %43 to i1
  br i1 %44, label %52, label %45

45:                                               ; preds = %42
  %46 = call i32 @H5PL__find_plugin_in_path_table(ptr noundef nonnull %3, ptr noundef nonnull %4, ptr noundef nonnull %5) #6
  %47 = icmp slt i32 %46, 0
  br i1 %47, label %48, label %._crit_edge

._crit_edge:                                      ; preds = %45
  %.pre = load i8, ptr %4, align 1
  br label %52

48:                                               ; preds = %45
  %49 = load i64, ptr @H5E_PLUGIN_g, align 8
  %50 = load i64, ptr @H5E_CANTGET_g, align 8
  %51 = call i32 (ptr, ptr, i32, i64, i64, ptr, ...) @H5E_printf_stack(ptr noundef nonnull @.str.2, ptr noundef nonnull @__func__.H5PL_load, i32 noundef 258, i64 noundef %49, i64 noundef %50, ptr noundef nonnull @.str.12) #6
  br label %61

52:                                               ; preds = %._crit_edge, %42
  %53 = phi i8 [ %.pre, %._crit_edge ], [ %43, %42 ]
  %54 = trunc i8 %53 to i1
  br i1 %54, label %55, label %57

55:                                               ; preds = %52
  %56 = load ptr, ptr %5, align 8
  br label %61

57:                                               ; preds = %52
  %58 = load i64, ptr @H5E_PLUGIN_g, align 8
  %59 = load i64, ptr @H5E_NOTFOUND_g, align 8
  %60 = call i32 (ptr, ptr, i32, i64, i64, ptr, ...) @H5E_printf_stack(ptr noundef nonnull @.str.2, ptr noundef nonnull @__func__.H5PL_load, i32 noundef 266, i64 noundef %58, i64 noundef %59, ptr noundef nonnull @.str.13) #6
  br label %61

61:                                               ; preds = %55, %57, %48, %38, %30, %26, %18, %10
  %.0 = phi ptr [ null, %30 ], [ null, %26 ], [ null, %38 ], [ %56, %55 ], [ null, %57 ], [ null, %48 ], [ null, %18 ], [ null, %10 ]
  ret ptr %.0
}